
poke.elf:     file format elf32-zpu

Disassembly of section .fixed_vectors:

00000000 <_start>:
   0:	0b          	nop
   1:	0b          	nop
   2:	0b          	nop
   3:	8f          	im 15
   4:	83          	im 3
   5:	04          	poppc
	...

00000020 <_zpu_interrupt_vector>:
  20:	0b          	nop
  21:	0b          	nop
  22:	0b          	nop
  23:	89          	im 9
  24:	8f          	im 15
  25:	04          	poppc
	...

00000040 <_loadh>:
  40:	71          	loadsp 4
  41:	fd          	im -3
  42:	06          	and
  43:	08          	load
  44:	72          	loadsp 8
  45:	83          	im 3
  46:	06          	and
  47:	09          	not
  48:	81          	im 1
  49:	05          	add
  4a:	82          	im 2
  4b:	05          	add
  4c:	83          	im 3
  4d:	2b          	ashiftleft
  4e:	2a          	lshiftright
  4f:	83          	im 3
  50:	ff          	im -1
  51:	ff          	im -1
  52:	06          	and
  53:	52          	storesp 8
  54:	04          	poppc
	...

00000060 <_storeh>:
  60:	71          	loadsp 4
  61:	fd          	im -3
  62:	06          	and
  63:	08          	load
  64:	83          	im 3
  65:	ff          	im -1
  66:	ff          	im -1
  67:	73          	loadsp 12
  68:	83          	im 3
  69:	06          	and
  6a:	09          	not
  6b:	81          	im 1
  6c:	05          	add
  6d:	82          	im 2
  6e:	05          	add
  6f:	83          	im 3
  70:	2b          	ashiftleft
  71:	2b          	ashiftleft
  72:	09          	not
  73:	06          	and
  74:	73          	loadsp 12
  75:	83          	im 3
  76:	ff          	im -1
  77:	ff          	im -1
  78:	0b          	nop
  79:	0b          	nop
  7a:	0b          	nop
  7b:	0b          	nop
  7c:	83          	im 3
  7d:	a7          	im 39
  7e:	04          	poppc
	...

00000080 <_lessthan>:
  80:	72          	loadsp 8
  81:	09          	not
  82:	81          	im 1
  83:	05          	add
  84:	72          	loadsp 8
  85:	05          	add
  86:	73          	loadsp 12
  87:	73          	loadsp 12
  88:	09          	not
  89:	06          	and
  8a:	09          	not
  8b:	06          	and
  8c:	73          	loadsp 12
  8d:	09          	not
  8e:	73          	loadsp 12
  8f:	06          	and
  90:	07          	or
  91:	0a          	flip
  92:	81          	im 1
  93:	06          	and
  94:	53          	storesp 12
  95:	51          	storesp 4
  96:	04          	poppc
	...

000000a0 <_lessthanorequal>:
  a0:	72          	loadsp 8
  a1:	72          	loadsp 8
  a2:	24          	lessthan
  a3:	73          	loadsp 12
  a4:	73          	loadsp 12
  a5:	2e          	eq
  a6:	07          	or
  a7:	53          	storesp 12
  a8:	51          	storesp 4
  a9:	04          	poppc
	...

000000c0 <_ulessthan>:
  c0:	71          	loadsp 4
  c1:	73          	loadsp 12
  c2:	71          	loadsp 4
  c3:	09          	not
  c4:	71          	loadsp 4
  c5:	06          	and
  c6:	81          	im 1
  c7:	06          	and
  c8:	30          	neg
  c9:	72          	loadsp 8
  ca:	0a          	flip
  cb:	10          	addsp 0
  cc:	0a          	flip
  cd:	72          	loadsp 8
  ce:	0a          	flip
  cf:	10          	addsp 0
  d0:	0a          	flip
  d1:	31          	sub
  d2:	05          	add
  d3:	0a          	flip
  d4:	81          	im 1
  d5:	06          	and
  d6:	51          	storesp 4
  d7:	51          	storesp 4
  d8:	53          	storesp 12
  d9:	51          	storesp 4
  da:	04          	poppc
  db:	00          	breakpoint
  dc:	00          	breakpoint
  dd:	00          	breakpoint
	...

000000e0 <_ulessthanorequal>:
  e0:	72          	loadsp 8
  e1:	72          	loadsp 8
  e2:	26          	ulessthan
  e3:	73          	loadsp 12
  e4:	73          	loadsp 12
  e5:	2e          	eq
  e6:	07          	or
  e7:	53          	storesp 12
  e8:	51          	storesp 4
  e9:	04          	poppc
	...

00000100 <_swap>:
	...

00000120 <_slowmult>:
 120:	0b          	nop
 121:	0b          	nop
 122:	0b          	nop
 123:	88          	im 8
 124:	c3          	im -61
 125:	04          	poppc
	...

00000140 <_lshiftright>:
 140:	72          	loadsp 8
 141:	0a          	flip
 142:	72          	loadsp 8
 143:	2b          	ashiftleft
 144:	0a          	flip
 145:	53          	storesp 12
 146:	51          	storesp 4
 147:	04          	poppc
	...

00000160 <_ashiftleft>:
 160:	72          	loadsp 8
 161:	72          	loadsp 8
 162:	9f          	im 31
 163:	06          	and
 164:	09          	not
 165:	81          	im 1
 166:	05          	add
 167:	0b          	nop
 168:	0b          	nop
 169:	0b          	nop
 16a:	88          	im 8
 16b:	a6          	im 38
 16c:	05          	add
 16d:	04          	poppc
	...

00000180 <_ashiftright>:
 180:	72          	loadsp 8
 181:	72          	loadsp 8
 182:	2a          	lshiftright
 183:	ff          	im -1
 184:	73          	loadsp 12
 185:	9f          	im 31
 186:	06          	and
 187:	2a          	lshiftright
 188:	09          	not
 189:	74          	loadsp 16
 18a:	09          	not
 18b:	0a          	flip
 18c:	81          	im 1
 18d:	06          	and
 18e:	ff          	im -1
 18f:	05          	add
 190:	06          	and
 191:	07          	or
 192:	53          	storesp 12
 193:	51          	storesp 4
 194:	04          	poppc
	...

000001a0 <_call>:
 1a0:	71          	loadsp 4
 1a1:	71          	loadsp 4
 1a2:	53          	storesp 12
 1a3:	51          	storesp 4
 1a4:	02          	pushsp
 1a5:	0d          	popsp
 1a6:	04          	poppc

000001a7 <_storehtail>:
 1a7:	06          	and
 1a8:	73          	loadsp 12
 1a9:	83          	im 3
 1aa:	06          	and
 1ab:	09          	not
 1ac:	81          	im 1
 1ad:	05          	add
 1ae:	82          	im 2
 1af:	05          	add
 1b0:	83          	im 3
 1b1:	2b          	ashiftleft
 1b2:	0b          	nop
 1b3:	2b          	ashiftleft
 1b4:	07          	or
 1b5:	72          	loadsp 8
 1b6:	fc          	im -4
 1b7:	06          	and
 1b8:	0c          	store
 1b9:	51          	storesp 4
 1ba:	51          	storesp 4
 1bb:	04          	poppc
 1bc:	00          	breakpoint
 1bd:	00          	breakpoint
	...

000001c0 <_eq>:
 1c0:	72          	loadsp 8
 1c1:	09          	not
 1c2:	81          	im 1
 1c3:	05          	add
 1c4:	72          	loadsp 8
 1c5:	05          	add
 1c6:	09          	not
 1c7:	70          	loadsp 0
 1c8:	81          	im 1
 1c9:	05          	add
 1ca:	09          	not
 1cb:	06          	and
 1cc:	0a          	flip
 1cd:	81          	im 1
 1ce:	06          	and
 1cf:	53          	storesp 12
 1d0:	51          	storesp 4
 1d1:	04          	poppc
	...

000001e0 <_neq>:
 1e0:	72          	loadsp 8
 1e1:	09          	not
 1e2:	81          	im 1
 1e3:	05          	add
 1e4:	72          	loadsp 8
 1e5:	05          	add
 1e6:	09          	not
 1e7:	70          	loadsp 0
 1e8:	81          	im 1
 1e9:	05          	add
 1ea:	09          	not
 1eb:	06          	and
 1ec:	0a          	flip
 1ed:	09          	not
 1ee:	81          	im 1
 1ef:	06          	and
 1f0:	53          	storesp 12
 1f1:	51          	storesp 4
 1f2:	04          	poppc
	...

00000200 <_neg>:
 200:	71          	loadsp 4
 201:	09          	not
 202:	81          	im 1
 203:	05          	add
 204:	52          	storesp 8
 205:	04          	poppc
	...

00000220 <_sub>:
 220:	72          	loadsp 8
 221:	72          	loadsp 8
 222:	09          	not
 223:	81          	im 1
 224:	05          	add
 225:	05          	add
 226:	53          	storesp 12
 227:	51          	storesp 4
 228:	04          	poppc
	...

00000240 <_xor>:
 240:	72          	loadsp 8
 241:	09          	not
 242:	72          	loadsp 8
 243:	06          	and
 244:	73          	loadsp 12
 245:	73          	loadsp 12
 246:	09          	not
 247:	06          	and
 248:	07          	or
 249:	53          	storesp 12
 24a:	51          	storesp 4
 24b:	04          	poppc
	...

00000260 <_loadb>:
 260:	71          	loadsp 4
 261:	fc          	im -4
 262:	06          	and
 263:	08          	load
 264:	72          	loadsp 8
 265:	83          	im 3
 266:	06          	and
 267:	09          	not
 268:	81          	im 1
 269:	05          	add
 26a:	83          	im 3
 26b:	05          	add
 26c:	10          	addsp 0
 26d:	10          	addsp 0
 26e:	10          	addsp 0
 26f:	2a          	lshiftright
 270:	81          	im 1
 271:	ff          	im -1
 272:	06          	and
 273:	52          	storesp 8
 274:	04          	poppc
	...

00000280 <_storeb>:
 280:	71          	loadsp 4
 281:	fc          	im -4
 282:	06          	and
 283:	08          	load
 284:	0b          	nop
 285:	0b          	nop
 286:	0b          	nop
 287:	91          	im 17
 288:	94          	im 20
 289:	73          	loadsp 12
 28a:	83          	im 3
 28b:	06          	and
 28c:	10          	addsp 0
 28d:	10          	addsp 0
 28e:	05          	add
 28f:	08          	load
 290:	06          	and
 291:	0b          	nop
 292:	0b          	nop
 293:	0b          	nop
 294:	88          	im 8
 295:	a9          	im 41
 296:	04          	poppc
	...

000002a0 <_div>:
 2a0:	0b          	nop
 2a1:	0b          	nop
 2a2:	0b          	nop
 2a3:	88          	im 8
 2a4:	f7          	im -9
 2a5:	04          	poppc
	...

000002c0 <_mod>:
 2c0:	0b          	nop
 2c1:	0b          	nop
 2c2:	0b          	nop
 2c3:	88          	im 8
 2c4:	df          	im -33
 2c5:	04          	poppc
	...

000002e0 <_eqbranch>:
 2e0:	72          	loadsp 8
 2e1:	09          	not
 2e2:	70          	loadsp 0
 2e3:	81          	im 1
 2e4:	05          	add
 2e5:	09          	not
 2e6:	06          	and
 2e7:	0a          	flip
 2e8:	81          	im 1
 2e9:	06          	and
 2ea:	ff          	im -1
 2eb:	05          	add
 2ec:	70          	loadsp 0
 2ed:	54          	storesp 16
 2ee:	71          	loadsp 4
 2ef:	06          	and
 2f0:	73          	loadsp 12
 2f1:	09          	not
 2f2:	72          	loadsp 8
 2f3:	74          	loadsp 16
 2f4:	05          	add
 2f5:	ff          	im -1
 2f6:	05          	add
 2f7:	06          	and
 2f8:	07          	or
 2f9:	51          	storesp 4
 2fa:	51          	storesp 4
 2fb:	51          	storesp 4
 2fc:	04          	poppc
 2fd:	00          	breakpoint
	...

00000300 <_neqbranch>:
 300:	72          	loadsp 8
 301:	09          	not
 302:	70          	loadsp 0
 303:	81          	im 1
 304:	05          	add
 305:	09          	not
 306:	06          	and
 307:	0a          	flip
 308:	09          	not
 309:	81          	im 1
 30a:	06          	and
 30b:	ff          	im -1
 30c:	05          	add
 30d:	70          	loadsp 0
 30e:	54          	storesp 16
 30f:	71          	loadsp 4
 310:	06          	and
 311:	73          	loadsp 12
 312:	09          	not
 313:	72          	loadsp 8
 314:	74          	loadsp 16
 315:	05          	add
 316:	ff          	im -1
 317:	05          	add
 318:	06          	and
 319:	07          	or
 31a:	51          	storesp 4
 31b:	51          	storesp 4
 31c:	51          	storesp 4
 31d:	04          	poppc
	...

00000320 <_poppcrel>:
 320:	05          	add
 321:	ff          	im -1
 322:	05          	add
 323:	04          	poppc
	...

00000340 <_config>:
 340:	81          	im 1
 341:	0b          	nop
 342:	0b          	nop
 343:	0b          	nop
 344:	0b          	nop
 345:	91          	im 17
 346:	b8          	im 56
 347:	0c          	store
 348:	51          	storesp 4
 349:	04          	poppc
	...

00000360 <_pushpc>:
 360:	71          	loadsp 4
 361:	81          	im 1
 362:	05          	add
 363:	52          	storesp 8
 364:	04          	poppc
	...

00000380 <_syscall_emulate>:
	...

000003a0 <_pushspadd>:
 3a0:	02          	pushsp
 3a1:	84          	im 4
 3a2:	05          	add
 3a3:	72          	loadsp 8
 3a4:	10          	addsp 0
 3a5:	10          	addsp 0
 3a6:	05          	add
 3a7:	52          	storesp 8
 3a8:	04          	poppc
	...

000003c0 <_halfmult>:
	...

000003e0 <_callpcrel>:
 3e0:	71          	loadsp 4
 3e1:	71          	loadsp 4
 3e2:	05          	add
 3e3:	ff          	im -1
 3e4:	05          	add
 3e5:	71          	loadsp 4
 3e6:	53          	storesp 12
 3e7:	51          	storesp 4
 3e8:	02          	pushsp
 3e9:	0d          	popsp
 3ea:	04          	poppc
	...
Disassembly of section .init:

00000400 <_init>:
 400:	82          	im 2
 401:	b0          	im 48
 402:	3f          	callpcrel
 403:	88          	im 8
 404:	e3          	im -29
 405:	3f          	callpcrel
 406:	04          	poppc
Disassembly of section .text:

00000407 <_ashiftleftBegin>:
 407:	10          	addsp 0
 408:	10          	addsp 0
 409:	10          	addsp 0
 40a:	10          	addsp 0
 40b:	10          	addsp 0
 40c:	10          	addsp 0
 40d:	10          	addsp 0
 40e:	10          	addsp 0
 40f:	10          	addsp 0
 410:	10          	addsp 0
 411:	10          	addsp 0
 412:	10          	addsp 0
 413:	10          	addsp 0
 414:	10          	addsp 0
 415:	10          	addsp 0
 416:	10          	addsp 0
 417:	10          	addsp 0
 418:	10          	addsp 0
 419:	10          	addsp 0
 41a:	10          	addsp 0
 41b:	10          	addsp 0
 41c:	10          	addsp 0
 41d:	10          	addsp 0
 41e:	10          	addsp 0
 41f:	10          	addsp 0
 420:	10          	addsp 0
 421:	10          	addsp 0
 422:	10          	addsp 0
 423:	10          	addsp 0
 424:	10          	addsp 0
 425:	10          	addsp 0

00000426 <_ashiftleftEnd>:
 426:	53          	storesp 12
 427:	51          	storesp 4
 428:	04          	poppc

00000429 <_storebtail>:
 429:	73          	loadsp 12
 42a:	81          	im 1
 42b:	ff          	im -1
 42c:	06          	and
 42d:	73          	loadsp 12
 42e:	83          	im 3
 42f:	06          	and
 430:	09          	not
 431:	81          	im 1
 432:	05          	add
 433:	83          	im 3
 434:	05          	add
 435:	10          	addsp 0
 436:	10          	addsp 0
 437:	10          	addsp 0
 438:	2b          	ashiftleft
 439:	07          	or
 43a:	72          	loadsp 8
 43b:	fc          	im -4
 43c:	06          	and
 43d:	0c          	store
 43e:	51          	storesp 4
 43f:	51          	storesp 4
 440:	04          	poppc

00000441 <_syscall>:
 441:	3c          	syscall
 442:	04          	poppc

00000443 <_slowmultImpl>:
 443:	72          	loadsp 8
 444:	72          	loadsp 8
 445:	80          	im 0
 446:	72          	loadsp 8
 447:	81          	im 1
 448:	06          	and
 449:	ff          	im -1
 44a:	05          	add
 44b:	09          	not
 44c:	72          	loadsp 8
 44d:	06          	and
 44e:	05          	add
 44f:	71          	loadsp 4
 450:	10          	addsp 0
 451:	52          	storesp 8
 452:	72          	loadsp 8
 453:	0a          	flip
 454:	10          	addsp 0
 455:	0a          	flip
 456:	53          	storesp 12
 457:	72          	loadsp 8
 458:	ed          	im -19
 459:	38          	neqbranch
 45a:	51          	storesp 4
 45b:	51          	storesp 4
 45c:	53          	storesp 12
 45d:	51          	storesp 4
 45e:	04          	poppc

0000045f <___mod>:
 45f:	80          	im 0
 460:	08          	load
 461:	84          	im 4
 462:	08          	load
 463:	88          	im 8
 464:	08          	load
 465:	75          	loadsp 20
 466:	75          	loadsp 20
 467:	8c          	im 12
 468:	b9          	im 57
 469:	2d          	call
 46a:	50          	storesp 0
 46b:	50          	storesp 0
 46c:	80          	im 0
 46d:	08          	load
 46e:	56          	storesp 24
 46f:	88          	im 8
 470:	0c          	store
 471:	84          	im 4
 472:	0c          	store
 473:	80          	im 0
 474:	0c          	store
 475:	51          	storesp 4
 476:	04          	poppc

00000477 <___div>:
 477:	80          	im 0
 478:	08          	load
 479:	84          	im 4
 47a:	08          	load
 47b:	88          	im 8
 47c:	08          	load
 47d:	75          	loadsp 20
 47e:	75          	loadsp 20
 47f:	8b          	im 11
 480:	87          	im 7
 481:	2d          	call
 482:	50          	storesp 0
 483:	50          	storesp 0
 484:	80          	im 0
 485:	08          	load
 486:	56          	storesp 24
 487:	88          	im 8
 488:	0c          	store
 489:	84          	im 4
 48a:	0c          	store
 48b:	80          	im 0
 48c:	0c          	store
 48d:	51          	storesp 4
 48e:	04          	poppc

0000048f <___zpu_interrupt_vector>:
 48f:	80          	im 0
 490:	08          	load
 491:	84          	im 4
 492:	08          	load
 493:	88          	im 8
 494:	08          	load
 495:	8f          	im 15
 496:	c3          	im -61
 497:	2d          	call
 498:	88          	im 8
 499:	0c          	store
 49a:	84          	im 4
 49b:	0c          	store
 49c:	80          	im 0
 49d:	0c          	store
 49e:	04          	poppc

0000049f <_initIO>:
 49f:	91          	im 17
 4a0:	b8          	im 56
 4a1:	08          	load
 4a2:	80          	im 0
 4a3:	2e          	eq
 4a4:	a1          	im 33
 4a5:	38          	neqbranch

000004a6 <.LSM10>:
 4a6:	91          	im 17
 4a7:	bc          	im 60
 4a8:	08          	load
 4a9:	82          	im 2
 4aa:	2e          	eq
 4ab:	b9          	im 57
 4ac:	38          	neqbranch

000004ad <.LSM11>:
 4ad:	83          	im 3
 4ae:	80          	im 0
 4af:	80          	im 0
 4b0:	0b          	nop
 4b1:	0b          	nop
 4b2:	0b          	nop
 4b3:	0b          	nop
 4b4:	98          	im 24
 4b5:	e0          	im -32
 4b6:	0c          	store

000004b7 <.LSM12>:
 4b7:	82          	im 2
 4b8:	a0          	im 32
 4b9:	80          	im 0
 4ba:	0b          	nop
 4bb:	98          	im 24
 4bc:	e4          	im -28
 4bd:	0c          	store

000004be <.LSM13>:
 4be:	82          	im 2
 4bf:	90          	im 16
 4c0:	80          	im 0
 4c1:	0b          	nop
 4c2:	98          	im 24
 4c3:	e8          	im -24
 4c4:	0c          	store

000004c5 <.LSM14>:
 4c5:	04          	poppc

000004c6 <.L11>:
 4c6:	f8          	im -8
 4c7:	80          	im 0
 4c8:	80          	im 0
 4c9:	80          	im 0
 4ca:	a4          	im 36
 4cb:	0b          	nop
 4cc:	0b          	nop
 4cd:	0b          	nop
 4ce:	0b          	nop
 4cf:	98          	im 24
 4d0:	e0          	im -32
 4d1:	0c          	store

000004d2 <.LSM16>:
 4d2:	f8          	im -8
 4d3:	80          	im 0
 4d4:	80          	im 0
 4d5:	82          	im 2
 4d6:	80          	im 0
 4d7:	0b          	nop
 4d8:	98          	im 24
 4d9:	e4          	im -28
 4da:	0c          	store

000004db <.LSM17>:
 4db:	f8          	im -8
 4dc:	80          	im 0
 4dd:	80          	im 0
 4de:	84          	im 4
 4df:	80          	im 0
 4e0:	0b          	nop
 4e1:	98          	im 24
 4e2:	e8          	im -24
 4e3:	0c          	store

000004e4 <.LSM18>:
 4e4:	04          	poppc

000004e5 <.L16>:
 4e5:	80          	im 0
 4e6:	c0          	im -64
 4e7:	a8          	im 40
 4e8:	80          	im 0
 4e9:	8c          	im 12
 4ea:	0b          	nop
 4eb:	0b          	nop
 4ec:	0b          	nop
 4ed:	0b          	nop
 4ee:	98          	im 24
 4ef:	e0          	im -32
 4f0:	0c          	store

000004f1 <.LSM20>:
 4f1:	80          	im 0
 4f2:	c0          	im -64
 4f3:	a8          	im 40
 4f4:	80          	im 0
 4f5:	94          	im 20
 4f6:	0b          	nop
 4f7:	98          	im 24
 4f8:	e4          	im -28
 4f9:	0c          	store

000004fa <.LSM21>:
 4fa:	91          	im 17
 4fb:	a4          	im 36
 4fc:	0b          	nop
 4fd:	98          	im 24
 4fe:	e8          	im -24
 4ff:	0c          	store

00000500 <.LSM22>:
 500:	04          	poppc

00000501 <__do_global_dtors_aux>:
 501:	ff          	im -1
 502:	3d          	pushspadd
 503:	0d          	popsp
 504:	98          	im 24
 505:	ec          	im -20
 506:	33          	loadb
 507:	51          	storesp 4
 508:	70          	loadsp 0
 509:	a3          	im 35
 50a:	38          	neqbranch
 50b:	91          	im 17
 50c:	c4          	im -60
 50d:	08          	load
 50e:	70          	loadsp 0
 50f:	08          	load
 510:	52          	storesp 8
 511:	52          	storesp 8
 512:	70          	loadsp 0
 513:	80          	im 0
 514:	2e          	eq
 515:	92          	im 18
 516:	38          	neqbranch

00000517 <.L10>:
 517:	84          	im 4
 518:	12          	addsp 8
 519:	91          	im 17
 51a:	c4          	im -60
 51b:	0c          	store
 51c:	70          	loadsp 0
 51d:	2d          	call
 51e:	91          	im 17
 51f:	c4          	im -60
 520:	08          	load
 521:	70          	loadsp 0
 522:	08          	load
 523:	52          	storesp 8
 524:	52          	storesp 8
 525:	70          	loadsp 0
 526:	f0          	im -16
 527:	38          	neqbranch

00000528 <.L7>:
 528:	81          	im 1
 529:	0b          	nop
 52a:	98          	im 24
 52b:	ec          	im -20
 52c:	34          	storeb

0000052d <.L1>:
 52d:	83          	im 3
 52e:	3d          	pushspadd
 52f:	0d          	popsp
 530:	04          	poppc

00000531 <call___do_global_dtors_aux>:
 531:	04          	poppc

00000532 <frame_dummy>:
 532:	80          	im 0
 533:	3d          	pushspadd
 534:	0d          	popsp
 535:	0b          	nop
 536:	0b          	nop
 537:	0b          	nop
 538:	98          	im 24
 539:	dc          	im -36
 53a:	08          	load
 53b:	80          	im 0
 53c:	2e          	eq
 53d:	8e          	im 14
 53e:	38          	neqbranch
 53f:	0b          	nop
 540:	0b          	nop
 541:	0b          	nop
 542:	0b          	nop
 543:	80          	im 0
 544:	0b          	nop
 545:	80          	im 0
 546:	2e          	eq
 547:	09          	not
 548:	81          	im 1
 549:	06          	and
 54a:	85          	im 5
 54b:	38          	neqbranch

0000054c <.L12>:
 54c:	82          	im 2
 54d:	3d          	pushspadd
 54e:	0d          	popsp
 54f:	04          	poppc

00000550 <.L15>:
 550:	0b          	nop
 551:	0b          	nop
 552:	0b          	nop
 553:	98          	im 24
 554:	dc          	im -36
 555:	51          	storesp 4
 556:	0b          	nop
 557:	0b          	nop
 558:	0b          	nop
 559:	f5          	im -11
 55a:	a5          	im 37
 55b:	3f          	callpcrel
 55c:	82          	im 2
 55d:	3d          	pushspadd
 55e:	0d          	popsp
 55f:	04          	poppc

00000560 <call_frame_dummy>:
 560:	04          	poppc

00000561 <main>:
 561:	8c          	im 12
 562:	08          	load
 563:	02          	pushsp
 564:	8c          	im 12
 565:	0c          	store
 566:	80          	im 0
 567:	3d          	pushspadd
 568:	0d          	popsp
 569:	80          	im 0
 56a:	0b          	nop
 56b:	8c          	im 12
 56c:	08          	load
 56d:	fc          	im -4
 56e:	05          	add
 56f:	0c          	store

00000570 <.L2>:
 570:	8c          	im 12
 571:	08          	load
 572:	fc          	im -4
 573:	05          	add
 574:	08          	load
 575:	82          	im 2
 576:	80          	im 0
 577:	80          	im 0
 578:	0c          	store
 579:	8c          	im 12
 57a:	08          	load
 57b:	fc          	im -4
 57c:	05          	add
 57d:	08          	load
 57e:	81          	im 1
 57f:	05          	add
 580:	8c          	im 12
 581:	08          	load
 582:	fc          	im -4
 583:	05          	add
 584:	0c          	store
 585:	ea          	im -22
 586:	39          	poppcrel

00000587 <__divsi3>:
 587:	8c          	im 12
 588:	08          	load
 589:	02          	pushsp
 58a:	8c          	im 12
 58b:	0c          	store
 58c:	f9          	im -7
 58d:	3d          	pushspadd
 58e:	0d          	popsp
 58f:	80          	im 0
 590:	0b          	nop
 591:	8c          	im 12
 592:	08          	load
 593:	fc          	im -4
 594:	05          	add
 595:	0c          	store
 596:	8c          	im 12
 597:	08          	load
 598:	88          	im 8
 599:	05          	add
 59a:	08          	load
 59b:	80          	im 0
 59c:	25          	lessthanorequal
 59d:	ab          	im 43
 59e:	38          	neqbranch
 59f:	8c          	im 12
 5a0:	08          	load
 5a1:	88          	im 8
 5a2:	05          	add
 5a3:	08          	load
 5a4:	30          	neg
 5a5:	8c          	im 12
 5a6:	08          	load
 5a7:	88          	im 8
 5a8:	05          	add
 5a9:	0c          	store
 5aa:	80          	im 0
 5ab:	0b          	nop
 5ac:	8c          	im 12
 5ad:	08          	load
 5ae:	f4          	im -12
 5af:	05          	add
 5b0:	0c          	store
 5b1:	8c          	im 12
 5b2:	08          	load
 5b3:	fc          	im -4
 5b4:	05          	add
 5b5:	08          	load
 5b6:	88          	im 8
 5b7:	38          	neqbranch
 5b8:	81          	im 1
 5b9:	0b          	nop
 5ba:	8c          	im 12
 5bb:	08          	load
 5bc:	f4          	im -12
 5bd:	05          	add
 5be:	0c          	store

000005bf <.L3>:
 5bf:	8c          	im 12
 5c0:	08          	load
 5c1:	f4          	im -12
 5c2:	05          	add
 5c3:	08          	load
 5c4:	8c          	im 12
 5c5:	08          	load
 5c6:	fc          	im -4
 5c7:	05          	add
 5c8:	0c          	store

000005c9 <.L2>:
 5c9:	8c          	im 12
 5ca:	08          	load
 5cb:	8c          	im 12
 5cc:	05          	add
 5cd:	08          	load
 5ce:	80          	im 0
 5cf:	25          	lessthanorequal
 5d0:	ab          	im 43
 5d1:	38          	neqbranch
 5d2:	8c          	im 12
 5d3:	08          	load
 5d4:	8c          	im 12
 5d5:	05          	add
 5d6:	08          	load
 5d7:	30          	neg
 5d8:	8c          	im 12
 5d9:	08          	load
 5da:	8c          	im 12
 5db:	05          	add
 5dc:	0c          	store
 5dd:	80          	im 0
 5de:	0b          	nop
 5df:	8c          	im 12
 5e0:	08          	load
 5e1:	f0          	im -16
 5e2:	05          	add
 5e3:	0c          	store
 5e4:	8c          	im 12
 5e5:	08          	load
 5e6:	fc          	im -4
 5e7:	05          	add
 5e8:	08          	load
 5e9:	88          	im 8
 5ea:	38          	neqbranch
 5eb:	81          	im 1
 5ec:	0b          	nop
 5ed:	8c          	im 12
 5ee:	08          	load
 5ef:	f0          	im -16
 5f0:	05          	add
 5f1:	0c          	store

000005f2 <.L5>:
 5f2:	8c          	im 12
 5f3:	08          	load
 5f4:	f0          	im -16
 5f5:	05          	add
 5f6:	08          	load
 5f7:	8c          	im 12
 5f8:	08          	load
 5f9:	fc          	im -4
 5fa:	05          	add
 5fb:	0c          	store

000005fc <.L4>:
 5fc:	80          	im 0
 5fd:	53          	storesp 12
 5fe:	8c          	im 12
 5ff:	08          	load
 600:	8c          	im 12
 601:	05          	add
 602:	08          	load
 603:	52          	storesp 8
 604:	8c          	im 12
 605:	08          	load
 606:	88          	im 8
 607:	05          	add
 608:	08          	load
 609:	51          	storesp 4
 60a:	81          	im 1
 60b:	a7          	im 39
 60c:	3f          	callpcrel
 60d:	80          	im 0
 60e:	08          	load
 60f:	70          	loadsp 0
 610:	8c          	im 12
 611:	08          	load
 612:	f8          	im -8
 613:	05          	add
 614:	0c          	store
 615:	54          	storesp 16
 616:	8c          	im 12
 617:	08          	load
 618:	fc          	im -4
 619:	05          	add
 61a:	08          	load
 61b:	80          	im 0
 61c:	2e          	eq
 61d:	8c          	im 12
 61e:	38          	neqbranch
 61f:	8c          	im 12
 620:	08          	load
 621:	f8          	im -8
 622:	05          	add
 623:	08          	load
 624:	30          	neg
 625:	8c          	im 12
 626:	08          	load
 627:	f8          	im -8
 628:	05          	add
 629:	0c          	store

0000062a <.L6>:
 62a:	8c          	im 12
 62b:	08          	load
 62c:	f8          	im -8
 62d:	05          	add
 62e:	08          	load
 62f:	70          	loadsp 0
 630:	80          	im 0
 631:	0c          	store
 632:	54          	storesp 16
 633:	89          	im 9
 634:	3d          	pushspadd
 635:	0d          	popsp
 636:	8c          	im 12
 637:	0c          	store
 638:	04          	poppc

00000639 <__modsi3>:
 639:	8c          	im 12
 63a:	08          	load
 63b:	02          	pushsp
 63c:	8c          	im 12
 63d:	0c          	store
 63e:	fb          	im -5
 63f:	3d          	pushspadd
 640:	0d          	popsp
 641:	80          	im 0
 642:	0b          	nop
 643:	8c          	im 12
 644:	08          	load
 645:	fc          	im -4
 646:	05          	add
 647:	0c          	store
 648:	8c          	im 12
 649:	08          	load
 64a:	88          	im 8
 64b:	05          	add
 64c:	08          	load
 64d:	80          	im 0
 64e:	25          	lessthanorequal
 64f:	93          	im 19
 650:	38          	neqbranch
 651:	8c          	im 12
 652:	08          	load
 653:	88          	im 8
 654:	05          	add
 655:	08          	load
 656:	30          	neg
 657:	8c          	im 12
 658:	08          	load
 659:	88          	im 8
 65a:	05          	add
 65b:	0c          	store
 65c:	81          	im 1
 65d:	0b          	nop
 65e:	8c          	im 12
 65f:	08          	load
 660:	fc          	im -4
 661:	05          	add
 662:	0c          	store

00000663 <.L8>:
 663:	8c          	im 12
 664:	08          	load
 665:	8c          	im 12
 666:	05          	add
 667:	08          	load
 668:	80          	im 0
 669:	25          	lessthanorequal
 66a:	8c          	im 12
 66b:	38          	neqbranch
 66c:	8c          	im 12
 66d:	08          	load
 66e:	8c          	im 12
 66f:	05          	add
 670:	08          	load
 671:	30          	neg
 672:	8c          	im 12
 673:	08          	load
 674:	8c          	im 12
 675:	05          	add
 676:	0c          	store

00000677 <.L9>:
 677:	81          	im 1
 678:	53          	storesp 12
 679:	8c          	im 12
 67a:	08          	load
 67b:	8c          	im 12
 67c:	05          	add
 67d:	08          	load
 67e:	52          	storesp 8
 67f:	8c          	im 12
 680:	08          	load
 681:	88          	im 8
 682:	05          	add
 683:	08          	load
 684:	51          	storesp 4
 685:	ad          	im 45
 686:	3f          	callpcrel
 687:	80          	im 0
 688:	08          	load
 689:	70          	loadsp 0
 68a:	8c          	im 12
 68b:	08          	load
 68c:	f8          	im -8
 68d:	05          	add
 68e:	0c          	store
 68f:	54          	storesp 16
 690:	8c          	im 12
 691:	08          	load
 692:	fc          	im -4
 693:	05          	add
 694:	08          	load
 695:	80          	im 0
 696:	2e          	eq
 697:	8c          	im 12
 698:	38          	neqbranch
 699:	8c          	im 12
 69a:	08          	load
 69b:	f8          	im -8
 69c:	05          	add
 69d:	08          	load
 69e:	30          	neg
 69f:	8c          	im 12
 6a0:	08          	load
 6a1:	f8          	im -8
 6a2:	05          	add
 6a3:	0c          	store

000006a4 <.L10>:
 6a4:	8c          	im 12
 6a5:	08          	load
 6a6:	f8          	im -8
 6a7:	05          	add
 6a8:	08          	load
 6a9:	70          	loadsp 0
 6aa:	80          	im 0
 6ab:	0c          	store
 6ac:	54          	storesp 16
 6ad:	87          	im 7
 6ae:	3d          	pushspadd
 6af:	0d          	popsp
 6b0:	8c          	im 12
 6b1:	0c          	store
 6b2:	04          	poppc

000006b3 <udivmodsi4>:
 6b3:	8c          	im 12
 6b4:	08          	load
 6b5:	02          	pushsp
 6b6:	8c          	im 12
 6b7:	0c          	store
 6b8:	fd          	im -3
 6b9:	3d          	pushspadd
 6ba:	0d          	popsp
 6bb:	81          	im 1
 6bc:	0b          	nop
 6bd:	8c          	im 12
 6be:	08          	load
 6bf:	fc          	im -4
 6c0:	05          	add
 6c1:	0c          	store
 6c2:	80          	im 0
 6c3:	0b          	nop
 6c4:	8c          	im 12
 6c5:	08          	load
 6c6:	f8          	im -8
 6c7:	05          	add
 6c8:	0c          	store

000006c9 <.L2>:
 6c9:	8c          	im 12
 6ca:	08          	load
 6cb:	8c          	im 12
 6cc:	05          	add
 6cd:	08          	load
 6ce:	8c          	im 12
 6cf:	08          	load
 6d0:	88          	im 8
 6d1:	05          	add
 6d2:	08          	load
 6d3:	27          	ulessthanorequal
 6d4:	ac          	im 44
 6d5:	38          	neqbranch
 6d6:	8c          	im 12
 6d7:	08          	load
 6d8:	fc          	im -4
 6d9:	05          	add
 6da:	08          	load
 6db:	80          	im 0
 6dc:	2e          	eq
 6dd:	a3          	im 35
 6de:	38          	neqbranch
 6df:	80          	im 0
 6e0:	0b          	nop
 6e1:	8c          	im 12
 6e2:	08          	load
 6e3:	8c          	im 12
 6e4:	05          	add
 6e5:	08          	load
 6e6:	24          	lessthan
 6e7:	99          	im 25
 6e8:	38          	neqbranch
 6e9:	8c          	im 12
 6ea:	08          	load
 6eb:	8c          	im 12
 6ec:	05          	add
 6ed:	08          	load
 6ee:	10          	addsp 0
 6ef:	8c          	im 12
 6f0:	08          	load
 6f1:	8c          	im 12
 6f2:	05          	add
 6f3:	0c          	store
 6f4:	8c          	im 12
 6f5:	08          	load
 6f6:	fc          	im -4
 6f7:	05          	add
 6f8:	08          	load
 6f9:	10          	addsp 0
 6fa:	8c          	im 12
 6fb:	08          	load
 6fc:	fc          	im -4
 6fd:	05          	add
 6fe:	0c          	store
 6ff:	c9          	im -55
 700:	39          	poppcrel

00000701 <.L4>:
 701:	8c          	im 12
 702:	08          	load
 703:	fc          	im -4
 704:	05          	add
 705:	08          	load
 706:	80          	im 0
 707:	2e          	eq
 708:	80          	im 0
 709:	c9          	im -55
 70a:	38          	neqbranch
 70b:	8c          	im 12
 70c:	08          	load
 70d:	8c          	im 12
 70e:	05          	add
 70f:	08          	load
 710:	8c          	im 12
 711:	08          	load
 712:	88          	im 8
 713:	05          	add
 714:	08          	load
 715:	26          	ulessthan
 716:	a1          	im 33
 717:	38          	neqbranch
 718:	8c          	im 12
 719:	08          	load
 71a:	88          	im 8
 71b:	05          	add
 71c:	08          	load
 71d:	8c          	im 12
 71e:	08          	load
 71f:	8c          	im 12
 720:	05          	add
 721:	08          	load
 722:	31          	sub
 723:	8c          	im 12
 724:	08          	load
 725:	88          	im 8
 726:	05          	add
 727:	0c          	store
 728:	8c          	im 12
 729:	08          	load
 72a:	f8          	im -8
 72b:	05          	add
 72c:	08          	load
 72d:	8c          	im 12
 72e:	08          	load
 72f:	fc          	im -4
 730:	05          	add
 731:	08          	load
 732:	07          	or
 733:	8c          	im 12
 734:	08          	load
 735:	f8          	im -8
 736:	05          	add
 737:	0c          	store

00000738 <.L6>:
 738:	8c          	im 12
 739:	08          	load
 73a:	fc          	im -4
 73b:	05          	add
 73c:	08          	load
 73d:	81          	im 1
 73e:	2a          	lshiftright
 73f:	8c          	im 12
 740:	08          	load
 741:	fc          	im -4
 742:	05          	add
 743:	0c          	store
 744:	8c          	im 12
 745:	08          	load
 746:	8c          	im 12
 747:	05          	add
 748:	08          	load
 749:	81          	im 1
 74a:	2a          	lshiftright
 74b:	8c          	im 12
 74c:	08          	load
 74d:	8c          	im 12
 74e:	05          	add
 74f:	0c          	store
 750:	ff          	im -1
 751:	af          	im 47
 752:	39          	poppcrel

00000753 <.L5>:
 753:	8c          	im 12
 754:	08          	load
 755:	90          	im 16
 756:	05          	add
 757:	08          	load
 758:	80          	im 0
 759:	2e          	eq
 75a:	8f          	im 15
 75b:	38          	neqbranch
 75c:	8c          	im 12
 75d:	08          	load
 75e:	88          	im 8
 75f:	05          	add
 760:	08          	load
 761:	70          	loadsp 0
 762:	8c          	im 12
 763:	08          	load
 764:	f4          	im -12
 765:	05          	add
 766:	0c          	store
 767:	51          	storesp 4
 768:	8d          	im 13
 769:	39          	poppcrel

0000076a <.L7>:
 76a:	8c          	im 12
 76b:	08          	load
 76c:	f8          	im -8
 76d:	05          	add
 76e:	08          	load
 76f:	70          	loadsp 0
 770:	8c          	im 12
 771:	08          	load
 772:	f4          	im -12
 773:	05          	add
 774:	0c          	store
 775:	51          	storesp 4

00000776 <.L1>:
 776:	8c          	im 12
 777:	08          	load
 778:	f4          	im -12
 779:	05          	add
 77a:	08          	load
 77b:	80          	im 0
 77c:	0c          	store
 77d:	85          	im 5
 77e:	3d          	pushspadd
 77f:	0d          	popsp
 780:	8c          	im 12
 781:	0c          	store
 782:	04          	poppc

00000783 <_premain>:
 783:	fd          	im -3
 784:	3d          	pushspadd
 785:	0d          	popsp

00000786 <.LSM1>:
 786:	80          	im 0
 787:	0b          	nop
 788:	91          	im 17
 789:	bc          	im 60
 78a:	08          	load
 78b:	54          	storesp 16
 78c:	54          	storesp 16
 78d:	72          	loadsp 8
 78e:	81          	im 1
 78f:	2e          	eq
 790:	98          	im 24
 791:	38          	neqbranch
 792:	73          	loadsp 12
 793:	98          	im 24
 794:	f0          	im -16
 795:	0c          	store

00000796 <.LSM2>:
 796:	fa          	im -6
 797:	87          	im 7
 798:	3f          	callpcrel

00000799 <.LSM3>:
 799:	f8          	im -8
 79a:	e5          	im -27
 79b:	3f          	callpcrel

0000079c <.LSM4>:
 79c:	91          	im 17
 79d:	c8          	im -56
 79e:	52          	storesp 8
 79f:	81          	im 1
 7a0:	51          	storesp 4
 7a1:	fb          	im -5
 7a2:	be          	im 62
 7a3:	3f          	callpcrel

000007a4 <.LSM5>:
 7a4:	80          	im 0
 7a5:	08          	load
 7a6:	51          	storesp 4
 7a7:	9e          	im 30
 7a8:	3f          	callpcrel

000007a9 <.L6>:
 7a9:	72          	loadsp 8
 7aa:	98          	im 24
 7ab:	f0          	im -16
 7ac:	0c          	store

000007ad <.LSM7>:
 7ad:	f9          	im -7
 7ae:	f0          	im -16
 7af:	3f          	callpcrel

000007b0 <.LSM8>:
 7b0:	f8          	im -8
 7b1:	ce          	im -50
 7b2:	3f          	callpcrel

000007b3 <.LSM9>:
 7b3:	91          	im 17
 7b4:	c8          	im -56
 7b5:	52          	storesp 8
 7b6:	81          	im 1
 7b7:	51          	storesp 4
 7b8:	fb          	im -5
 7b9:	a7          	im 39
 7ba:	3f          	callpcrel

000007bb <.LSM10>:
 7bb:	80          	im 0
 7bc:	08          	load
 7bd:	51          	storesp 4
 7be:	87          	im 7
 7bf:	3f          	callpcrel

000007c0 <_exit>:
	...

000007c1 <.L8>:
 7c1:	ff          	im -1
 7c2:	39          	poppcrel

000007c3 <_zpu_interrupt>:
	...

000007c4 <.L12>:
 7c4:	ff          	im -1
 7c5:	39          	poppcrel

000007c6 <exit>:
 7c6:	f7          	im -9
 7c7:	3d          	pushspadd
 7c8:	0d          	popsp
 7c9:	7b          	loadsp 44

000007ca <.LM2>:
 7ca:	91          	im 17
 7cb:	cc          	im -52
 7cc:	08          	load
 7cd:	82          	im 2
 7ce:	c8          	im -56
 7cf:	11          	addsp 4
 7d0:	08          	load
 7d1:	5a          	storesp 40
 7d2:	54          	storesp 16
 7d3:	5a          	storesp 40

000007d4 <.LM3>:
 7d4:	77          	loadsp 28
 7d5:	80          	im 0
 7d6:	2e          	eq
 7d7:	80          	im 0
 7d8:	d9          	im -39
 7d9:	38          	neqbranch

000007da <.L12>:
 7da:	81          	im 1
 7db:	88          	im 8
 7dc:	18          	addsp 32

000007dd <.LM5>:
 7dd:	84          	im 4
 7de:	19          	addsp 36
 7df:	08          	load
 7e0:	ff          	im -1
 7e1:	05          	add
 7e2:	81          	im 1
 7e3:	71          	loadsp 4
 7e4:	2b          	ashiftleft
 7e5:	59          	storesp 36
 7e6:	55          	storesp 20
 7e7:	59          	storesp 36
 7e8:	80          	im 0
 7e9:	74          	loadsp 16
 7ea:	24          	lessthan
 7eb:	80          	im 0
 7ec:	e9          	im -23
 7ed:	38          	neqbranch

000007ee <.L5>:
 7ee:	80          	im 0
 7ef:	74          	loadsp 16
 7f0:	24          	lessthan
 7f1:	b5          	im 53
 7f2:	38          	neqbranch
 7f3:	73          	loadsp 12
 7f4:	82          	im 2
 7f5:	2b          	ashiftleft
 7f6:	78          	loadsp 32
 7f7:	11          	addsp 4
 7f8:	88          	im 8
 7f9:	05          	add
 7fa:	56          	storesp 24
 7fb:	56          	storesp 24

000007fc <.L11>:
 7fc:	81          	im 1
 7fd:	80          	im 0
 7fe:	19          	addsp 36
 7ff:	08          	load
 800:	77          	loadsp 28
 801:	06          	and
 802:	53          	storesp 12
 803:	72          	loadsp 8
 804:	80          	im 0
 805:	2e          	eq
 806:	b5          	im 53
 807:	38          	neqbranch

00000808 <.LM7>:
 808:	78          	loadsp 32
 809:	16          	addsp 24
 80a:	70          	loadsp 0
 80b:	08          	load
 80c:	53          	storesp 12
 80d:	53          	storesp 12
 80e:	79          	loadsp 36
 80f:	51          	storesp 4
 810:	74          	loadsp 16
 811:	08          	load
 812:	53          	storesp 12
 813:	72          	loadsp 8
 814:	2d          	call

00000815 <.LM8>:
 815:	ff          	im -1
 816:	14          	addsp 16
 817:	fc          	im -4
 818:	17          	addsp 28
 819:	fc          	im -4
 81a:	17          	addsp 28
 81b:	79          	loadsp 36
 81c:	81          	im 1
 81d:	2c          	ashiftright
 81e:	5a          	storesp 40
 81f:	57          	storesp 28
 820:	57          	storesp 28
 821:	54          	storesp 16
 822:	73          	loadsp 12
 823:	80          	im 0
 824:	25          	lessthanorequal
 825:	d6          	im -42
 826:	38          	neqbranch

00000827 <.L17>:
 827:	77          	loadsp 28
 828:	08          	load
 829:	58          	storesp 32
 82a:	77          	loadsp 28
 82b:	ff          	im -1
 82c:	ad          	im 45
 82d:	38          	neqbranch
 82e:	91          	im 17
 82f:	cc          	im -52
 830:	08          	load
 831:	53          	storesp 12

00000832 <.L15>:
 832:	bc          	im 60
 833:	13          	addsp 12
 834:	08          	load
 835:	a5          	im 37
 836:	38          	neqbranch

00000837 <.LM11>:
 837:	79          	loadsp 36
 838:	51          	storesp 4
 839:	ff          	im -1
 83a:	85          	im 5
 83b:	3f          	callpcrel

0000083c <.L9>:
 83c:	74          	loadsp 16
 83d:	08          	load
 83e:	53          	storesp 12
 83f:	72          	loadsp 8
 840:	2d          	call

00000841 <.LM13>:
 841:	ff          	im -1
 842:	14          	addsp 16
 843:	fc          	im -4
 844:	17          	addsp 28
 845:	fc          	im -4
 846:	17          	addsp 28
 847:	79          	loadsp 36
 848:	81          	im 1
 849:	2c          	ashiftright
 84a:	5a          	storesp 40
 84b:	57          	storesp 28
 84c:	57          	storesp 28
 84d:	54          	storesp 16
 84e:	73          	loadsp 12
 84f:	80          	im 0
 850:	25          	lessthanorequal
 851:	ff          	im -1
 852:	a9          	im 41
 853:	38          	neqbranch
 854:	d2          	im -46
 855:	39          	poppcrel

00000856 <.L19>:
 856:	80          	im 0
 857:	57          	storesp 28
 858:	ff          	im -1
 859:	94          	im 20
 85a:	39          	poppcrel

0000085b <.L20>:
 85b:	72          	loadsp 8
 85c:	51          	storesp 4
 85d:	bc          	im 60
 85e:	13          	addsp 12
 85f:	08          	load
 860:	53          	storesp 12
 861:	72          	loadsp 8
 862:	2d          	call

00000863 <.LM15>:
 863:	79          	loadsp 36
 864:	51          	storesp 4
 865:	fe          	im -2
 866:	d9          	im -39
 867:	3f          	callpcrel

00000868 <__do_global_ctors_aux>:
 868:	ff          	im -1
 869:	3d          	pushspadd
 86a:	0d          	popsp
 86b:	98          	im 24
 86c:	d0          	im -48
 86d:	0b          	nop
 86e:	fc          	im -4
 86f:	05          	add
 870:	70          	loadsp 0
 871:	08          	load
 872:	52          	storesp 8
 873:	52          	storesp 8
 874:	70          	loadsp 0
 875:	ff          	im -1
 876:	2e          	eq
 877:	91          	im 17
 878:	38          	neqbranch

00000879 <.L10>:
 879:	70          	loadsp 0
 87a:	2d          	call
 87b:	fc          	im -4
 87c:	12          	addsp 8
 87d:	70          	loadsp 0
 87e:	08          	load
 87f:	52          	storesp 8
 880:	52          	storesp 8
 881:	70          	loadsp 0
 882:	ff          	im -1
 883:	2e          	eq
 884:	09          	not
 885:	81          	im 1
 886:	06          	and
 887:	f1          	im -15
 888:	38          	neqbranch

00000889 <.L7>:
 889:	83          	im 3
 88a:	3d          	pushspadd
 88b:	0d          	popsp
 88c:	04          	poppc

0000088d <call___do_global_ctors_aux>:
 88d:	04          	poppc
Disassembly of section .fini:

0000088e <_fini>:
 88e:	f8          	im -8
 88f:	f1          	im -15
 890:	3f          	callpcrel
 891:	04          	poppc